Archive member included because of file (symbol)

/opt/LPCExpresso/tools/bin/../lib/gcc/arm-none-eabi/4.4.1/../../../../arm-none-eabi/lib/armv6-m/libcr_c.a(memcpy.o)
                              ./build/can.o (memcpy)
/opt/LPCExpresso/tools/bin/../lib/gcc/arm-none-eabi/4.4.1/../../../../arm-none-eabi/lib/armv6-m/libcr_c.a(memset.o)
                              ./build/flash.o (memset)
/opt/LPCExpresso/tools/bin/../lib/gcc/arm-none-eabi/4.4.1/armv6-m/libcr_eabihelpers.a(division.o)
                              ./build/maths.o (__aeabi_idiv)
/opt/LPCExpresso/tools/bin/../lib/gcc/arm-none-eabi/4.4.1/armv6-m/libcr_eabihelpers.a(llong.o)
                              ./build/utils.o (__aeabi_lmul)
/opt/LPCExpresso/tools/bin/../lib/gcc/arm-none-eabi/4.4.1/armv6-m/libcr_eabihelpers.a(memcpy.o)
                              /opt/LPCExpresso/tools/bin/../lib/gcc/arm-none-eabi/4.4.1/../../../../arm-none-eabi/lib/armv6-m/libcr_c.a(memcpy.o) (__aeabi_memcpy)

Allocating common symbols
Common symbol       size              file

I2CReadLength       0x4               ./build/i2c.o
I2CSlaveBuffer      0x40              ./build/i2c.o
heartbeat_timer     0x4               ./build/engine.o
CANRxDone           0x80              ./build/can.o
UARTBuffer          0x40              ./build/uart.o
I2CMode             0x4               ./build/i2c.o
I2CMasterBuffer     0x40              ./build/i2c.o
UARTStatus          0x4               ./build/uart.o
iap_entry           0x4               ./build/flash.o
can_buff            0x300             ./build/can.o
recv_buf_used       0x20              ./build/can.o
timesync_offset     0x8               ./build/engine.o
I2CWriteLength      0x4               ./build/i2c.o
my_config           0x10              ./build/engine.o
in_channels         0xc               ./build/engine.o
in_channel_handlers
                    0x4               ./build/engine.o

Discarded input sections

 .data          0x00000000        0x0 ./build/main.o
 .bss           0x00000000        0x0 ./build/main.o
 .data          0x00000000        0x0 ./build/scandal_obligations.o
 .bss           0x00000000        0x0 ./build/scandal_obligations.o
 .text          0x00000000       0x40 ./build/core_cm0.o
 .data          0x00000000        0x0 ./build/core_cm0.o
 .bss           0x00000000        0x0 ./build/core_cm0.o
 .bss           0x00000000        0x0 ./build/system_LPC11xx.o
 .data          0x00000000        0x0 ./build/leds.o
 .bss           0x00000000        0x0 ./build/leds.o
 .data          0x00000000        0x0 ./build/gpio.o
 .bss           0x00000000        0x0 ./build/gpio.o
 .data          0x00000000        0x0 ./build/timer32.o
 .data          0x00000000        0x0 ./build/can.o
 .data          0x00000000        0x0 ./build/i2c.o
 .data          0x00000000        0x0 ./build/flash.o
 .bss           0x00000000        0x0 ./build/flash.o
 COMMON         0x00000000        0x4 ./build/flash.o
 .data          0x00000000        0x0 ./build/engine.o
 .bss           0x00000000        0x0 ./build/engine.o
 .data          0x00000000        0x0 ./build/error.o
 .text          0x00000000       0x30 ./build/manager.o
 .data          0x00000000        0x0 ./build/manager.o
 .bss           0x00000000        0x0 ./build/manager.o
 .data          0x00000000        0x0 ./build/maths.o
 .bss           0x00000000        0x0 ./build/maths.o
 .data          0x00000000        0x0 ./build/message.o
 .bss           0x00000000        0x0 ./build/message.o
 .data          0x00000000        0x0 ./build/utils.o
 .bss           0x00000000        0x0 ./build/utils.o
 .data          0x00000000        0x0 ./build/cr_startup_lpc11.o
 .bss           0x00000000        0x0 ./build/cr_startup_lpc11.o
 .text          0x00000000        0x0 /opt/LPCExpresso/tools/bin/../lib/gcc/arm-none-eabi/4.4.1/../../../../arm-none-eabi/lib/armv6-m/libcr_c.a(memcpy.o)
 .data          0x00000000        0x0 /opt/LPCExpresso/tools/bin/../lib/gcc/arm-none-eabi/4.4.1/../../../../arm-none-eabi/lib/armv6-m/libcr_c.a(memcpy.o)
 .bss           0x00000000        0x0 /opt/LPCExpresso/tools/bin/../lib/gcc/arm-none-eabi/4.4.1/../../../../arm-none-eabi/lib/armv6-m/libcr_c.a(memcpy.o)
 .text          0x00000000        0x0 /opt/LPCExpresso/tools/bin/../lib/gcc/arm-none-eabi/4.4.1/../../../../arm-none-eabi/lib/armv6-m/libcr_c.a(memset.o)
 .data          0x00000000        0x0 /opt/LPCExpresso/tools/bin/../lib/gcc/arm-none-eabi/4.4.1/../../../../arm-none-eabi/lib/armv6-m/libcr_c.a(memset.o)
 .bss           0x00000000        0x0 /opt/LPCExpresso/tools/bin/../lib/gcc/arm-none-eabi/4.4.1/../../../../arm-none-eabi/lib/armv6-m/libcr_c.a(memset.o)
 .text          0x00000000        0x0 /opt/LPCExpresso/tools/bin/../lib/gcc/arm-none-eabi/4.4.1/armv6-m/libcr_eabihelpers.a(division.o)
 .data          0x00000000        0x0 /opt/LPCExpresso/tools/bin/../lib/gcc/arm-none-eabi/4.4.1/armv6-m/libcr_eabihelpers.a(division.o)
 .bss           0x00000000        0x0 /opt/LPCExpresso/tools/bin/../lib/gcc/arm-none-eabi/4.4.1/armv6-m/libcr_eabihelpers.a(division.o)
 .text.__aeabi_division_ldiv0
                0x00000000        0x2 /opt/LPCExpresso/tools/bin/../lib/gcc/arm-none-eabi/4.4.1/armv6-m/libcr_eabihelpers.a(division.o)
 .text.__aeabi_division_idivq31+15
                0x00000000      0x188 /opt/LPCExpresso/tools/bin/../lib/gcc/arm-none-eabi/4.4.1/armv6-m/libcr_eabihelpers.a(division.o)
 .text          0x00000000        0x0 /opt/LPCExpresso/tools/bin/../lib/gcc/arm-none-eabi/4.4.1/armv6-m/libcr_eabihelpers.a(llong.o)
 .data          0x00000000        0x0 /opt/LPCExpresso/tools/bin/../lib/gcc/arm-none-eabi/4.4.1/armv6-m/libcr_eabihelpers.a(llong.o)
 .bss           0x00000000        0x0 /opt/LPCExpresso/tools/bin/../lib/gcc/arm-none-eabi/4.4.1/armv6-m/libcr_eabihelpers.a(llong.o)
 .text.__aeabi_llong_llsl
                0x00000000       0x18 /opt/LPCExpresso/tools/bin/../lib/gcc/arm-none-eabi/4.4.1/armv6-m/libcr_eabihelpers.a(llong.o)
 .text.__aeabi_llong_llsr
                0x00000000       0x18 /opt/LPCExpresso/tools/bin/../lib/gcc/arm-none-eabi/4.4.1/armv6-m/libcr_eabihelpers.a(llong.o)
 .text.__aeabi_llong_lasr
                0x00000000       0x18 /opt/LPCExpresso/tools/bin/../lib/gcc/arm-none-eabi/4.4.1/armv6-m/libcr_eabihelpers.a(llong.o)
 .text.__aeabi_llong_lcmp
                0x00000000       0x14 /opt/LPCExpresso/tools/bin/../lib/gcc/arm-none-eabi/4.4.1/armv6-m/libcr_eabihelpers.a(llong.o)
 .text.__aeabi_llong_ulcmp
                0x00000000       0x10 /opt/LPCExpresso/tools/bin/../lib/gcc/arm-none-eabi/4.4.1/armv6-m/libcr_eabihelpers.a(llong.o)
 .text          0x00000000        0x0 /opt/LPCExpresso/tools/bin/../lib/gcc/arm-none-eabi/4.4.1/armv6-m/libcr_eabihelpers.a(memcpy.o)
 .data          0x00000000        0x0 /opt/LPCExpresso/tools/bin/../lib/gcc/arm-none-eabi/4.4.1/armv6-m/libcr_eabihelpers.a(memcpy.o)
 .bss           0x00000000        0x0 /opt/LPCExpresso/tools/bin/../lib/gcc/arm-none-eabi/4.4.1/armv6-m/libcr_eabihelpers.a(memcpy.o)
 .text.__aeabi_memmove
                0x00000000       0x1c /opt/LPCExpresso/tools/bin/../lib/gcc/arm-none-eabi/4.4.1/armv6-m/libcr_eabihelpers.a(memcpy.o)
 .text.__aeabi_memclr
                0x00000000        0x6 /opt/LPCExpresso/tools/bin/../lib/gcc/arm-none-eabi/4.4.1/armv6-m/libcr_eabihelpers.a(memcpy.o)
 .text.__aeabi_memset
                0x00000000        0x8 /opt/LPCExpresso/tools/bin/../lib/gcc/arm-none-eabi/4.4.1/armv6-m/libcr_eabihelpers.a(memcpy.o)

Memory Configuration

Name             Origin             Length             Attributes
MFlash32         0x00000000         0x00007000         xr
RamLoc8          0x10000100         0x00001f00         xrw
*default*        0x00000000         0xffffffff

Linker script and memory map

LOAD /opt/LPCExpresso/tools/bin/../lib/gcc/arm-none-eabi/4.4.1/../../../../arm-none-eabi/lib/armv6-m/libm.a
LOAD ./build/main.o
LOAD ./build/scandal_obligations.o
LOAD ./build/core_cm0.o
LOAD ./build/system_LPC11xx.o
LOAD ./build/leds.o
LOAD ./build/gpio.o
LOAD ./build/timer32.o
LOAD ./build/uart.o
LOAD ./build/can.o
LOAD ./build/i2c.o
LOAD ./build/flash.o
LOAD ./build/engine.o
LOAD ./build/error.o
LOAD ./build/manager.o
LOAD ./build/maths.o
LOAD ./build/message.o
LOAD ./build/utils.o
LOAD ./build/cr_startup_lpc11.o
START GROUP
LOAD /opt/LPCExpresso/tools/bin/../lib/gcc/arm-none-eabi/4.4.1/../../../../arm-none-eabi/lib/armv6-m/libcr_c.a
LOAD /opt/LPCExpresso/tools/bin/../lib/gcc/arm-none-eabi/4.4.1/../../../../arm-none-eabi/lib/armv6-m/libcr_semihost.a
LOAD /opt/LPCExpresso/tools/bin/../lib/gcc/arm-none-eabi/4.4.1/armv6-m/libcr_eabihelpers.a
END GROUP
                0x00007000                __top_MFlash32 = 0x7000
                0x10002000                __top_RamLoc8 = 0x10002000

.text           0x00000000     0x25a0
 FILL mask 0xff
 *(.isr_vector)
 .isr_vector    0x00000000       0xc0 ./build/cr_startup_lpc11.o
                0x00000000                g_pfnVectors
 *(.text.Reset_Handler .text.SystemInit)
                0x000002fc                . = 0x2fc
 *fill*         0x000000c0      0x23c ff
 *(.crp)
 *(.text*)
 .text          0x000002fc      0x130 ./build/main.o
                0x000002fc                in_channel_0_handler
                0x00000310                setup_ports
                0x0000032c                main
 .text          0x0000042c       0x10 ./build/scandal_obligations.o
                0x0000042c                scandal_reset_node
                0x0000042e                scandal_user_do_first_run
                0x00000430                scandal_user_do_config
                0x00000434                scandal_user_handle_message
                0x00000438                scandal_user_handle_command
 .text          0x0000043c      0x164 ./build/system_LPC11xx.o
                0x0000043c                SystemCoreClockUpdate
                0x000004fc                SystemInit
 .text          0x000005a0       0x60 ./build/leds.o
                0x000005a0                toggle_red_led
                0x000005b8                toggle_yellow_led
                0x000005cc                yellow_led
                0x000005e6                red_led
 .text          0x00000600      0x2d4 ./build/gpio.o
                0x00000600                GPIOInit
                0x00000610                GPIOSetInterrupt
                0x00000754                GPIOIntEnable
                0x000007a4                GPIOIntDisable
                0x000007ec                GPIOIntStatus
                0x0000083c                GPIOIntClear
                0x0000088c                GPIOSetValue
                0x000008a0                GPIOSetDir
 .text          0x000008d4      0x3a4 ./build/timer32.o
                0x000008d4                sc_set_timer
                0x000008e0                sc_get_timer
                0x000008ec                delay32Ms
                0x00000974                TIMER32_0_IRQHandler
                0x000009a8                enable_timer32
                0x000009c4                disable_timer32
                0x000009e0                reset_timer32
                0x00000a00                init_timer32PWM
                0x00000b3c                setMatch_timer32PWM
                0x00000b98                init_timer32
                0x00000c54                sc_init_timer
 .text          0x00000c78      0x464 ./build/uart.o
                0x00000c78                UART_IRQHandler
                0x00000d14                ModemInit
                0x00000d90                UARTSend
                0x00000fec                UART_printf
                0x00001000                UART_sprintf
                0x00001018                UARTInit
 .text          0x000010dc      0x424 ./build/can.o
                0x000010dc                can_baud_rate
                0x000010e0                can_poll
                0x000010e2                CAN_decode_packet
                0x00001148                can_get_msg
                0x000011c0                CAN_MessageProcess
                0x00001294                CAN_IRQHandler
                0x000012f8                BufferCheck
                0x00001314                CAN_Send
                0x000013ac                can_send_msg
                0x000013cc                CAN_Init
                0x0000143c                init_can
                0x0000144c                can_register_id
 .text          0x00001500      0x220 ./build/i2c.o
                0x00001500                I2C_IRQHandler
                0x0000161c                I2CStart
                0x0000164c                I2CStop
                0x00001668                I2CEngine
                0x000016b4                I2CInit
 .text          0x00001720       0xcc ./build/flash.o
                0x00001720                sc_init_eeprom
                0x00001722                sc_user_eeprom_read_block
                0x00001724                sc_user_eeprom_write_block
                0x00001726                sc_write_conf
                0x000017d8                sc_read_conf
 .text          0x000017ec      0x468 ./build/engine.o
                0x000017ec                scandal_get_m
                0x000017fc                scandal_get_b
                0x0000180c                scandal_register_in_channel_handler
                0x00001818                scandal_get_in_channel_value
                0x00001828                scandal_get_in_channel_rcvd_time
                0x0000183c                scandal_get_in_channel_time
                0x00001850                scandal_in_channel_is_valid
                0x00001868                scandal_get_in_channel
                0x00001878                scandal_get_addr
                0x00001884                scandal_get_mac
                0x00001888                scandal_get_msg_type
                0x00001890                scandal_get_msg_priority
                0x0000189c                getconfig
                0x000018b0                scandal_handle_command
                0x000018d4                scandal_handle_timesync
                0x0000191c                scandal_handle_channel
                0x00001990                scandal_handle_reset
                0x000019ac                scandal_handle_config
                0x00001a54                scandal_set_b
                0x00001a6c                scandal_set_m
                0x00001a84                scandal_handle_user_config
                0x00001ad0                do_first_run
                0x00001af8                handle_message
                0x00001b48                handle_scandal
                0x00001b94                scandal_init
 .text          0x00001c54       0x54 ./build/error.o
                0x00001c54                scandal_get_last_scandal_error
                0x00001c60                scandal_get_last_user_error
                0x00001c6c                scandal_get_num_errors
                0x00001c78                do_fatal_error
                0x00001c7a                scandal_do_user_err
                0x00001c90                scandal_do_scandal_err
 .text          0x00001ca8       0x82 ./build/maths.o
                0x00001ca8                scandal_div32
                0x00001cce                scandal_div64
 *fill*         0x00001d2a        0x2 00
 .text          0x00001d2c      0x238 ./build/message.o
                0x00001d2c                scandal_send_timesync
                0x00001d6e                scandal_send_reset
                0x00001db4                scandal_send_user_config
                0x00001e0a                scandal_send_user_error
                0x00001e4c                scandal_send_scandal_error
                0x00001e8c                scandal_build_heartbeat_msg
                0x00001ee0                scandal_send_channel_with_timestamp
                0x00001f2e                scandal_send_heartbeat
 .text          0x00001f64      0x238 ./build/utils.o
                0x00001f64                scandal_naive_delay
                0x00001f7c                scandal_get_scaled64_value
                0x00001fbe                scandal_get_unscaled_value
                0x00001fe6                scandal_get_scaled_value
                0x00002006                scandal_get_scaleaverage64
                0x0000206e                scandal_integrate_trapz64
                0x000020ac                scandal_delay
                0x000020c2                scandal_ms_delay
                0x00002110                scandal_send_scaled_channel
                0x00002130                scandal_get_scaleaverage
                0x0000215c                scandal_send_scaleaverage_channel
                0x0000217a                scandal_integrate_trapz32
 .text          0x0000219c       0x5c ./build/cr_startup_lpc11.o
                0x0000219c                NMI_Handler
                0x000021a0                HardFault_Handler
                0x000021a4                SVCall_Handler
                0x000021a8                PendSV_Handler
                0x000021ac                SysTick_Handler
                0x000021b0                TIMER16_0_IRQHandler
                0x000021b0                TIMER32_1_IRQHandler
                0x000021b0                IntDefaultHandler
                0x000021b0                PIOINT1_IRQHandler
                0x000021b0                SSP0_IRQHandler
                0x000021b0                TIMER16_1_IRQHandler
                0x000021b0                ADC_IRQHandler
                0x000021b0                SSP1_IRQHandler
                0x000021b0                PIOINT2_IRQHandler
                0x000021b0                BOD_IRQHandler
                0x000021b0                WAKEUP_IRQHandler
                0x000021b0                PIOINT0_IRQHandler
                0x000021b0                WDT_IRQHandler
                0x000021b0                PIOINT3_IRQHandler
                0x000021b4                ResetISR
 .text.memcpy   0x000021f8        0x8 /opt/LPCExpresso/tools/bin/../lib/gcc/arm-none-eabi/4.4.1/../../../../arm-none-eabi/lib/armv6-m/libcr_c.a(memcpy.o)
                0x000021f8                memcpy
 .text.memset   0x00002200        0x8 /opt/LPCExpresso/tools/bin/../lib/gcc/arm-none-eabi/4.4.1/../../../../arm-none-eabi/lib/armv6-m/libcr_c.a(memset.o)
                0x00002200                memset
 .text.__aeabi_division_idivmod
                0x00002208        0x6 /opt/LPCExpresso/tools/bin/../lib/gcc/arm-none-eabi/4.4.1/armv6-m/libcr_eabihelpers.a(division.o)
                0x00002208                __aeabi_idiv
                0x00002208                __aeabi_idivmod
 .text.__aeabi_division_uidivmod
                0x0000220e       0x72 /opt/LPCExpresso/tools/bin/../lib/gcc/arm-none-eabi/4.4.1/armv6-m/libcr_eabihelpers.a(division.o)
                0x0000220e                __aeabi_uidiv
                0x0000220e                __aeabi_uidivmod
 .text.__aeabi_division_uldivmod
                0x00002280       0x5a /opt/LPCExpresso/tools/bin/../lib/gcc/arm-none-eabi/4.4.1/armv6-m/libcr_eabihelpers.a(division.o)
                0x00002280                __aeabi_uldivmod
 .text.__aeabi_division_ldivmod
                0x000022da       0x32 /opt/LPCExpresso/tools/bin/../lib/gcc/arm-none-eabi/4.4.1/armv6-m/libcr_eabihelpers.a(division.o)
                0x000022da                __aeabi_ldivmod
 .text.__aeabi_division_idiv0
                0x0000230c        0x2 /opt/LPCExpresso/tools/bin/../lib/gcc/arm-none-eabi/4.4.1/armv6-m/libcr_eabihelpers.a(division.o)
                0x0000230c                __aeabi_idiv0
 .text.__aeabi_llong_lmul
                0x0000230e       0x2e /opt/LPCExpresso/tools/bin/../lib/gcc/arm-none-eabi/4.4.1/armv6-m/libcr_eabihelpers.a(llong.o)
                0x0000230e                __aeabi_lmul
 .text.__aeabi_memcpy
                0x0000233c       0x2c /opt/LPCExpresso/tools/bin/../lib/gcc/arm-none-eabi/4.4.1/armv6-m/libcr_eabihelpers.a(memcpy.o)
                0x0000233c                __aeabi_memcpy
                0x0000233c                __aeabi_memcpy4
                0x0000233c                __aeabi_memcpy8
 .text.__aeabi_memset_lowlevel
                0x00002368       0x2a /opt/LPCExpresso/tools/bin/../lib/gcc/arm-none-eabi/4.4.1/armv6-m/libcr_eabihelpers.a(memcpy.o)
                0x00002368                __aeabi_lowlevel_memset
 *(.rodata*)
 .rodata.str1.1
                0x00002392      0x192 ./build/main.o
 .rodata        0x00002524       0x40 ./build/system_LPC11xx.o
 .rodata        0x00002564       0x10 ./build/gpio.o
 .rodata.str1.1
                0x00002574        0x7 ./build/uart.o
 *fill*         0x0000257b        0x1 00
 .rodata        0x0000257c       0x24 ./build/engine.o

.glue_7         0x000025a0        0x0
 .glue_7        0x00000000        0x0 linker stubs

.glue_7t        0x000025a0        0x0
 .glue_7t       0x00000000        0x0 linker stubs

.vfp11_veneer   0x000025a0        0x0
 .vfp11_veneer  0x00000000        0x0 linker stubs

.v4_bx          0x000025a0        0x0
 .v4_bx         0x00000000        0x0 linker stubs

.ARM.extab
 *(.ARM.extab* .gnu.linkonce.armextab.*)
                0x000025a0                __exidx_start = .

.ARM.exidx
 *(.ARM.exidx* .gnu.linkonce.armexidx.*)
                0x000025a0                __exidx_end = .
                0x000025a0                _etext = .

.data           0x10000100        0x5 load address 0x000025a0
                0x10000100                _data = .
 *(vtable)
 *(.data*)
 .data          0x10000100        0x4 ./build/system_LPC11xx.o
                0x10000100                SystemCoreClock
 .data          0x10000104        0x1 ./build/uart.o
                0x10000104                UARTTxEmpty
                0x10000105                _edata = .

.bss            0x10000108      0x4e0 load address 0x000025a8
                0x10000108                _bss = .
 *(.bss*)
 .bss           0x10000108       0x10 ./build/timer32.o
                0x10000108                timer32_0_counter
                0x1000010c                timer32_0_capture
                0x10000110                timer32_1_period
                0x10000114                timer32_0_period
 .bss           0x10000118        0x4 ./build/uart.o
                0x10000118                UARTCount
 .bss           0x1000011c        0xc ./build/can.o
                0x1000011c                EWarnCnt
                0x10000120                BOffCnt
                0x10000124                EPassCnt
 .bss           0x10000128       0x18 ./build/i2c.o
                0x10000128                timeout
                0x1000012c                WrIndex
                0x10000130                RdIndex
                0x10000134                I2CMasterState
                0x10000138                I2CSlaveState
                0x1000013c                I2CCount
 .bss           0x10000140        0x8 ./build/error.o
                0x10000140                last_scandal_error
                0x10000141                last_user_error
                0x10000144                num_errors
 *(COMMON)
 COMMON         0x10000148       0x44 ./build/uart.o
                0x10000148                UARTBuffer
                0x10000188                UARTStatus
 COMMON         0x1000018c      0x3a0 ./build/can.o
                0x1000018c                CANRxDone
                0x1000020c                can_buff
                0x1000050c                recv_buf_used
 COMMON         0x1000052c       0x8c ./build/i2c.o
                0x1000052c                I2CReadLength
                0x10000530                I2CSlaveBuffer
                0x10000570                I2CMode
                0x10000574                I2CMasterBuffer
                0x100005b4                I2CWriteLength
 COMMON         0x100005b8       0x30 ./build/engine.o
                0x100005b8                heartbeat_timer
                0x100005c0                timesync_offset
                0x100005c8                my_config
                0x100005d8                in_channels
                0x100005e4                in_channel_handlers
                0x100005e8                _ebss = .

.cr_heap        0x100005e8        0x0
                0x100005e8                end = .
                0x100005e8                _pvHeapStart = .
                0x10002000                _vRamTop = __top_RamLoc8
                0x10002000                _vStackTop = _vRamTop
OUTPUT(./build/main.axf elf32-littlearm)

.comment        0x00000000      0x35c
 .comment       0x00000000       0x2b ./build/main.o
 .comment       0x0000002b       0x2b ./build/scandal_obligations.o
 .comment       0x00000056       0x2b ./build/core_cm0.o
 .comment       0x00000081       0x2b ./build/system_LPC11xx.o
 .comment       0x000000ac       0x2b ./build/leds.o
 .comment       0x000000d7       0x2b ./build/gpio.o
 .comment       0x00000102       0x2b ./build/timer32.o
 .comment       0x0000012d       0x2b ./build/uart.o
 .comment       0x00000158       0x2b ./build/can.o
 .comment       0x00000183       0x2b ./build/i2c.o
 .comment       0x000001ae       0x2b ./build/flash.o
 .comment       0x000001d9       0x2b ./build/engine.o
 .comment       0x00000204       0x2b ./build/error.o
 .comment       0x0000022f       0x2b ./build/manager.o
 .comment       0x0000025a       0x2b ./build/maths.o
 .comment       0x00000285       0x2b ./build/message.o
 .comment       0x000002b0       0x2b ./build/utils.o
 .comment       0x000002db       0x2b ./build/cr_startup_lpc11.o
 .comment       0x00000306       0x2b /opt/LPCExpresso/tools/bin/../lib/gcc/arm-none-eabi/4.4.1/../../../../arm-none-eabi/lib/armv6-m/libcr_c.a(memcpy.o)
 .comment       0x00000331       0x2b /opt/LPCExpresso/tools/bin/../lib/gcc/arm-none-eabi/4.4.1/../../../../arm-none-eabi/lib/armv6-m/libcr_c.a(memset.o)

.ARM.attributes
                0x00000000       0x31
 .ARM.attributes
                0x00000000       0x33 ./build/main.o
 .ARM.attributes
                0x00000033       0x33 ./build/scandal_obligations.o
 .ARM.attributes
                0x00000066       0x33 ./build/core_cm0.o
 .ARM.attributes
                0x00000099       0x33 ./build/system_LPC11xx.o
 .ARM.attributes
                0x000000cc       0x33 ./build/leds.o
 .ARM.attributes
                0x000000ff       0x33 ./build/gpio.o
 .ARM.attributes
                0x00000132       0x33 ./build/timer32.o
 .ARM.attributes
                0x00000165       0x33 ./build/uart.o
 .ARM.attributes
                0x00000198       0x33 ./build/can.o
 .ARM.attributes
                0x000001cb       0x33 ./build/i2c.o
 .ARM.attributes
                0x000001fe       0x33 ./build/flash.o
 .ARM.attributes
                0x00000231       0x33 ./build/engine.o
 .ARM.attributes
                0x00000264       0x33 ./build/error.o
 .ARM.attributes
                0x00000297       0x33 ./build/manager.o
 .ARM.attributes
                0x000002ca       0x33 ./build/maths.o
 .ARM.attributes
                0x000002fd       0x33 ./build/message.o
 .ARM.attributes
                0x00000330       0x33 ./build/utils.o
 .ARM.attributes
                0x00000363       0x33 ./build/cr_startup_lpc11.o
 .ARM.attributes
                0x00000396       0x33 /opt/LPCExpresso/tools/bin/../lib/gcc/arm-none-eabi/4.4.1/../../../../arm-none-eabi/lib/armv6-m/libcr_c.a(memcpy.o)
 .ARM.attributes
                0x000003c9       0x33 /opt/LPCExpresso/tools/bin/../lib/gcc/arm-none-eabi/4.4.1/../../../../arm-none-eabi/lib/armv6-m/libcr_c.a(memset.o)
 .ARM.attributes
                0x000003fc       0x23 /opt/LPCExpresso/tools/bin/../lib/gcc/arm-none-eabi/4.4.1/armv6-m/libcr_eabihelpers.a(division.o)
 .ARM.attributes
                0x0000041f       0x23 /opt/LPCExpresso/tools/bin/../lib/gcc/arm-none-eabi/4.4.1/armv6-m/libcr_eabihelpers.a(llong.o)
 .ARM.attributes
                0x00000442       0x23 /opt/LPCExpresso/tools/bin/../lib/gcc/arm-none-eabi/4.4.1/armv6-m/libcr_eabihelpers.a(memcpy.o)
